; Function Attrs: mustprogress uwtable
define void @_ZN6duckdb7roaring23RoaringFinalizeCompressERNS_16CompressionStateE(ptr noundef nonnull align 8 dereferenceable(16) %0) #0 {
  tail call void @_ZN6duckdb7roaring20RoaringCompressState14FlushContainerEv(ptr noundef nonnull align 8 dereferenceable(1144) %0)
  tail call void @_ZN6duckdb7roaring20RoaringCompressState12FlushSegmentEv(ptr noundef nonnull align 8 dereferenceable(1144) %0)
  %2 = getelementptr inbounds nuw i8, ptr %0, i64 1088
  %3 = load ptr, ptr %2, align 8, !tbaa !141
  store ptr null, ptr %2, align 8, !tbaa !141
  %.not.i.i.i.i = icmp eq ptr %3, null
  br i1 %.not.i.i.i.i, label %_ZN6duckdb7roaring20RoaringCompressState8FinalizeEv.exit, label %_ZNKSt14default_deleteIN6duckdb13ColumnSegmentEEclEPS1_.exit.i.i.i.i

_ZNKSt14default_deleteIN6duckdb13ColumnSegmentEEclEPS1_.exit.i.i.i.i: ; preds = %1
  tail call void @_ZN6duckdb13ColumnSegmentD1Ev(ptr noundef nonnull align 8 dereferenceable(224) %3) #27
  tail call void @_ZdlPv(ptr noundef nonnull %3) #29
  br label %_ZN6duckdb7roaring20RoaringCompressState8FinalizeEv.exit

_ZN6duckdb7roaring20RoaringCompressState8FinalizeEv.exit: ; preds = %1, %_ZNKSt14default_deleteIN6duckdb13ColumnSegmentEEclEPS1_.exit.i.i.i.i
  ret void
}